; Function Attrs: mustprogress uwtable
define void @_ZNK6icu_779VTimeZone11writeSimpleEdRNS_13UnicodeStringER10UErrorCode(ptr noundef nonnull align 8 dereferenceable(288) %0, double noundef %1, ptr noundef nonnull align 8 dereferenceable(64) %2, ptr noundef nonnull align 4 dereferenceable(4) %3) local_unnamed_addr #2 align 2 personality ptr @__gxx_personality_v0 {
  %5 = alloca %"class.icu_77::VTZWriter", align 8
  %6 = getelementptr inbounds nuw i8, ptr %2, i64 8
  %7 = load i16, ptr %6, align 8, !tbaa !9
  %8 = and i16 %7, 1
  %.not.i = icmp eq i16 %8, 0
  %9 = and i16 %7, 30
  %storemerge.i = select i1 %.not.i, i16 %9, i16 2
  store i16 %storemerge.i, ptr %6, align 8, !tbaa !9
  call void @llvm.lifetime.start.p0(i64 8, ptr nonnull %5) #16
  call void @_ZN6icu_779VTZWriterC1ERNS_13UnicodeStringE(ptr noundef nonnull align 8 dereferenceable(8) %5, ptr noundef nonnull align 8 dereferenceable(64) %2)
  invoke void @_ZNK6icu_779VTimeZone11writeSimpleEdRNS_9VTZWriterER10UErrorCode(ptr noundef nonnull align 8 dereferenceable(288) %0, double noundef %1, ptr noundef nonnull align 8 dereferenceable(8) %5, ptr noundef nonnull align 4 dereferenceable(4) %3)
          to label %10 unwind label %11

10:                                               ; preds = %4
  call void @_ZN6icu_779VTZWriterD1Ev(ptr noundef nonnull align 8 dereferenceable(8) %5) #16
  call void @llvm.lifetime.end.p0(i64 8, ptr nonnull %5) #16
  ret void

11:                                               ; preds = %4
  %12 = landingpad { ptr, i32 }
          cleanup
  call void @_ZN6icu_779VTZWriterD1Ev(ptr noundef nonnull align 8 dereferenceable(8) %5) #16
  call void @llvm.lifetime.end.p0(i64 8, ptr nonnull %5) #16
  resume { ptr, i32 } %12
}